target datalayout = "e-m:e-p270:32:32-p271:32:32-p272:64:64-i64:64-i128:128-f80:128-n8:16:32:64-S128"
target triple = "x86_64-unknown-linux-gnu"

%class.b3AngularLimit = type <{ float, float, float, float, float, float, float, i8, [3 x i8] }>

; Function Attrs: mustprogress nounwind uwtable
define linkonce_odr dso_local noundef float @_Z6b3Fmodff(float noundef %x, float noundef %y) #1 comdat {
entry:
  %x.addr = alloca float, align 4
  %y.addr = alloca float, align 4
  store float %x, ptr %x.addr, align 4
  store float %y, ptr %y.addr, align 4
  %0 = load float, ptr %x.addr, align 4
  %1 = load float, ptr %y.addr, align 4
  %call = call float @fmodf(float noundef %0, float noundef %1) #5
  ret float %call
}

; Function Attrs: mustprogress uwtable
define linkonce_odr dso_local noundef float @_Z16b3NormalizeAnglef(float noundef %angleInRadians) #0 comdat {
entry:
  %retval = alloca float, align 4
  %angleInRadians.addr = alloca float, align 4
  store float %angleInRadians, ptr %angleInRadians.addr, align 4
  %0 = load float, ptr %angleInRadians.addr, align 4
  %call = call noundef float @_Z6b3Fmodff(float noundef %0, float noundef 0x401921FB60000000)
  store float %call, ptr %angleInRadians.addr, align 4
  %1 = load float, ptr %angleInRadians.addr, align 4
  %cmp = fcmp olt float %1, 0xC00921FB60000000
  br i1 %cmp, label %if.then, label %if.else

if.then:                                          ; preds = %entry
  %2 = load float, ptr %angleInRadians.addr, align 4
  %add = fadd float %2, 0x401921FB60000000
  store float %add, ptr %retval, align 4
  br label %return

if.else:                                          ; preds = %entry
  %3 = load float, ptr %angleInRadians.addr, align 4
  %cmp1 = fcmp ogt float %3, 0x400921FB60000000
  br i1 %cmp1, label %if.then2, label %if.else3

if.then2:                                         ; preds = %if.else
  %4 = load float, ptr %angleInRadians.addr, align 4
  %sub = fsub float %4, 0x401921FB60000000
  store float %sub, ptr %retval, align 4
  br label %return

if.else3:                                         ; preds = %if.else
  %5 = load float, ptr %angleInRadians.addr, align 4
  store float %5, ptr %retval, align 4
  br label %return

return:                                           ; preds = %if.else3, %if.then2, %if.then
  %6 = load float, ptr %retval, align 4
  ret float %6
}

; Function Attrs: mustprogress uwtable
define dso_local void @_ZN14b3AngularLimit4testEf(ptr noundef nonnull align 4 dereferenceable(29) %this, float noundef %angle) #0 align 2 {
entry:
  %this.addr = alloca ptr, align 8
  %angle.addr = alloca float, align 4
  %deviation = alloca float, align 4
  store ptr %this, ptr %this.addr, align 8
  store float %angle, ptr %angle.addr, align 4
  %this1 = load ptr, ptr %this.addr, align 8
  %m_correction = getelementptr inbounds %class.b3AngularLimit, ptr %this1, i32 0, i32 5
  store float 0.000000e+00, ptr %m_correction, align 4
  %m_sign = getelementptr inbounds %class.b3AngularLimit, ptr %this1, i32 0, i32 6
  store float 0.000000e+00, ptr %m_sign, align 4
  %m_solveLimit = getelementptr inbounds %class.b3AngularLimit, ptr %this1, i32 0, i32 7
  store i8 0, ptr %m_solveLimit, align 4
  %m_halfRange = getelementptr inbounds %class.b3AngularLimit, ptr %this1, i32 0, i32 1
  %0 = load float, ptr %m_halfRange, align 4
  %cmp = fcmp oge float %0, 0.000000e+00
  br i1 %cmp, label %if.then, label %if.end19

if.then:                                          ; preds = %entry
  %1 = load float, ptr %angle.addr, align 4
  %m_center = getelementptr inbounds %class.b3AngularLimit, ptr %this1, i32 0, i32 0
  %2 = load float, ptr %m_center, align 4
  %sub = fsub float %1, %2
  %call = call noundef float @_Z16b3NormalizeAnglef(float noundef %sub)
  store float %call, ptr %deviation, align 4
  %3 = load float, ptr %deviation, align 4
  %m_halfRange2 = getelementptr inbounds %class.b3AngularLimit, ptr %this1, i32 0, i32 1
  %4 = load float, ptr %m_halfRange2, align 4
  %fneg = fneg float %4
  %cmp3 = fcmp olt float %3, %fneg
  br i1 %cmp3, label %if.then4, label %if.else

if.then4:                                         ; preds = %if.then
  %m_solveLimit5 = getelementptr inbounds %class.b3AngularLimit, ptr %this1, i32 0, i32 7
  store i8 1, ptr %m_solveLimit5, align 4
  %5 = load float, ptr %deviation, align 4
  %m_halfRange6 = getelementptr inbounds %class.b3AngularLimit, ptr %this1, i32 0, i32 1
  %6 = load float, ptr %m_halfRange6, align 4
  %add = fadd float %5, %6
  %fneg7 = fneg float %add
  %m_correction8 = getelementptr inbounds %class.b3AngularLimit, ptr %this1, i32 0, i32 5
  store float %fneg7, ptr %m_correction8, align 4
  %m_sign9 = getelementptr inbounds %class.b3AngularLimit, ptr %this1, i32 0, i32 6
  store float 1.000000e+00, ptr %m_sign9, align 4
  br label %if.end18

if.else:                                          ; preds = %if.then
  %7 = load float, ptr %deviation, align 4
  %m_halfRange10 = getelementptr inbounds %class.b3AngularLimit, ptr %this1, i32 0, i32 1
  %8 = load float, ptr %m_halfRange10, align 4
  %cmp11 = fcmp ogt float %7, %8
  br i1 %cmp11, label %if.then12, label %if.end

if.then12:                                        ; preds = %if.else
  %m_solveLimit13 = getelementptr inbounds %class.b3AngularLimit, ptr %this1, i32 0, i32 7
  store i8 1, ptr %m_solveLimit13, align 4
  %m_halfRange14 = getelementptr inbounds %class.b3AngularLimit, ptr %this1, i32 0, i32 1
  %9 = load float, ptr %m_halfRange14, align 4
  %10 = load float, ptr %deviation, align 4
  %sub15 = fsub float %9, %10
  %m_correction16 = getelementptr inbounds %class.b3AngularLimit, ptr %this1, i32 0, i32 5
  store float %sub15, ptr %m_correction16, align 4
  %m_sign17 = getelementptr inbounds %class.b3AngularLimit, ptr %this1, i32 0, i32 6
  store float -1.000000e+00, ptr %m_sign17, align 4
  br label %if.end

if.end:                                           ; preds = %if.then12, %if.else
  br label %if.end18

if.end18:                                         ; preds = %if.end, %if.then4
  br label %if.end19

if.end19:                                         ; preds = %if.end18, %entry
  ret void
}